; ModuleID = 'source-C-CXX/22/530.cpp'
source_filename = "source-C-CXX/22/530.cpp"
target datalayout = "e-m:e-p270:32:32-p271:32:32-p272:64:64-i64:64-f80:128-n8:16:32:64-S128"
target triple = "x86_64-pc-linux-gnu"

%"class.std::ios_base::Init" = type { i8 }
%"class.std::basic_istream" = type { i32 (...)**, i64, %"class.std::basic_ios" }
%"class.std::basic_ios" = type { %"class.std::ios_base", %"class.std::basic_ostream"*, i8, i8, %"class.std::basic_streambuf"*, %"class.std::ctype"*, %"class.std::num_put"*, %"class.std::num_get"* }
%"class.std::ios_base" = type { i32 (...)**, i64, i64, i32, i32, i32, %"struct.std::ios_base::_Callback_list"*, %"struct.std::ios_base::_Words", [8 x %"struct.std::ios_base::_Words"], i32, %"struct.std::ios_base::_Words"*, %"class.std::locale" }
%"struct.std::ios_base::_Callback_list" = type { %"struct.std::ios_base::_Callback_list"*, void (i32, %"class.std::ios_base"*, i32)*, i32, i32 }
%"struct.std::ios_base::_Words" = type { i8*, i64 }
%"class.std::locale" = type { %"class.std::locale::_Impl"* }
%"class.std::locale::_Impl" = type { i32, %"class.std::locale::facet"**, i64, %"class.std::locale::facet"**, i8** }
%"class.std::locale::facet" = type <{ i32 (...)**, i32, [4 x i8] }>
%"class.std::basic_ostream" = type { i32 (...)**, %"class.std::basic_ios" }
%"class.std::basic_streambuf" = type { i32 (...)**, i8*, i8*, i8*, i8*, i8*, i8*, %"class.std::locale" }
%"class.std::ctype" = type <{ %"class.std::locale::facet.base", [4 x i8], %struct.__locale_struct*, i8, [7 x i8], i32*, i32*, i16*, i8, [256 x i8], [256 x i8], i8, [6 x i8] }>
%"class.std::locale::facet.base" = type <{ i32 (...)**, i32 }>
%struct.__locale_struct = type { [13 x %struct.__locale_data*], i16*, i32*, i32*, [13 x i8*] }
%struct.__locale_data = type opaque
%"class.std::num_put" = type { %"class.std::locale::facet.base", [4 x i8] }
%"class.std::num_get" = type { %"class.std::locale::facet.base", [4 x i8] }

@_ZStL8__ioinit = internal global %"class.std::ios_base::Init" zeroinitializer, align 1
@__dso_handle = external hidden global i8
@_ZSt3cin = external global %"class.std::basic_istream", align 8
@_ZSt4cout = external global %"class.std::basic_ostream", align 8
@llvm.global_ctors = appending global [1 x { i32, void ()*, i8* }] [{ i32, void ()*, i8* } { i32 65535, void ()* @_GLOBAL__sub_I_530.cpp, i8* null }]

declare void @_ZNSt8ios_base4InitC1Ev(%"class.std::ios_base::Init"* nonnull align 1 dereferenceable(1)) unnamed_addr #0

; Function Attrs: nounwind
declare void @_ZNSt8ios_base4InitD1Ev(%"class.std::ios_base::Init"* nonnull align 1 dereferenceable(1)) unnamed_addr #1

; Function Attrs: nofree nounwind
declare i32 @__cxa_atexit(void (i8*)*, i8*, i8*) local_unnamed_addr #2

; Function Attrs: mustprogress norecurse sspstrong uwtable
define dso_local i32 @main() local_unnamed_addr #3 {
  %1 = alloca i8, align 1
  %2 = alloca i8, align 1
  %3 = alloca i8, align 1
  %4 = alloca [201 x [100 x i8]], align 16
  %5 = alloca [100 x i8], align 16
  %6 = getelementptr inbounds [201 x [100 x i8]], [201 x [100 x i8]]* %4, i64 0, i64 0, i64 0
  call void @llvm.lifetime.start.p0i8(i64 20100, i8* nonnull %6) #6
  %7 = getelementptr inbounds [100 x i8], [100 x i8]* %5, i64 0, i64 0
  call void @llvm.lifetime.start.p0i8(i64 100, i8* nonnull %7) #6
  %8 = call nonnull align 8 dereferenceable(16) %"class.std::basic_istream"* @_ZNSi7getlineEPclc(%"class.std::basic_istream"* nonnull align 8 dereferenceable(16) @_ZSt3cin, i8* nonnull %7, i64 100, i8 signext 10)
  %9 = load i8, i8* %7, align 16, !tbaa !5
  %10 = icmp eq i8 %9, 0
  br i1 %10, label %47, label %11

11:                                               ; preds = %0, %28
  %12 = phi i8 [ %34, %28 ], [ %9, %0 ]
  %13 = phi i64 [ %30, %28 ], [ 0, %0 ]
  %14 = phi i32 [ %31, %28 ], [ 0, %0 ]
  %15 = sext i32 %14 to i64
  br label %16

16:                                               ; preds = %11, %21
  %17 = phi i8 [ %12, %11 ], [ %26, %21 ]
  %18 = phi i64 [ 0, %11 ], [ %24, %21 ]
  %19 = phi i64 [ %15, %11 ], [ %23, %21 ]
  %20 = icmp eq i8 %17, 32
  br i1 %20, label %28, label %21

21:                                               ; preds = %16
  %22 = getelementptr inbounds [201 x [100 x i8]], [201 x [100 x i8]]* %4, i64 0, i64 %13, i64 %18
  store i8 %17, i8* %22, align 1, !tbaa !5
  %23 = add i64 %19, 1
  %24 = add nuw i64 %18, 1
  %25 = getelementptr inbounds [100 x i8], [100 x i8]* %5, i64 0, i64 %23
  %26 = load i8, i8* %25, align 1, !tbaa !5
  %27 = icmp eq i8 %26, 0
  br i1 %27, label %36, label %16, !llvm.loop !8

28:                                               ; preds = %16
  %29 = trunc i64 %19 to i32
  %30 = add nuw i64 %13, 1
  %31 = add nsw i32 %29, 1
  %32 = sext i32 %31 to i64
  %33 = getelementptr inbounds [100 x i8], [100 x i8]* %5, i64 0, i64 %32
  %34 = load i8, i8* %33, align 1, !tbaa !5
  %35 = icmp eq i8 %34, 0
  br i1 %35, label %36, label %11, !llvm.loop !10

36:                                               ; preds = %28, %21
  %37 = phi i64 [ %13, %21 ], [ %30, %28 ]
  %38 = trunc i64 %37 to i32
  %39 = icmp sgt i32 %38, 0
  br i1 %39, label %40, label %47

40:                                               ; preds = %36
  %41 = and i64 %37, 4294967295
  br label %42

42:                                               ; preds = %40, %58
  %43 = phi i64 [ %41, %40 ], [ %60, %58 ]
  %44 = getelementptr inbounds [201 x [100 x i8]], [201 x [100 x i8]]* %4, i64 0, i64 %43, i64 0
  %45 = load i8, i8* %44, align 4, !tbaa !5
  %46 = icmp eq i8 %45, 0
  br i1 %46, label %58, label %50

47:                                               ; preds = %58, %0, %36
  %48 = load i8, i8* %6, align 16, !tbaa !5
  %49 = icmp eq i8 %48, 0
  br i1 %49, label %70, label %62

50:                                               ; preds = %42, %50
  %51 = phi i64 [ %54, %50 ], [ 0, %42 ]
  %52 = phi i8 [ %56, %50 ], [ %45, %42 ]
  call void @llvm.lifetime.start.p0i8(i64 1, i8* nonnull %3)
  store i8 %52, i8* %3, align 1, !tbaa !5
  %53 = call nonnull align 8 dereferenceable(8) %"class.std::basic_ostream"* @_ZSt16__ostream_insertIcSt11char_traitsIcEERSt13basic_ostreamIT_T0_ES6_PKS3_l(%"class.std::basic_ostream"* nonnull align 8 dereferenceable(8) @_ZSt4cout, i8* nonnull %3, i64 1)
  call void @llvm.lifetime.end.p0i8(i64 1, i8* nonnull %3)
  %54 = add nuw i64 %51, 1
  %55 = getelementptr inbounds [201 x [100 x i8]], [201 x [100 x i8]]* %4, i64 0, i64 %43, i64 %54
  %56 = load i8, i8* %55, align 1, !tbaa !5
  %57 = icmp eq i8 %56, 0
  br i1 %57, label %58, label %50, !llvm.loop !11

58:                                               ; preds = %50, %42
  call void @llvm.lifetime.start.p0i8(i64 1, i8* nonnull %2)
  store i8 32, i8* %2, align 1, !tbaa !5
  %59 = call nonnull align 8 dereferenceable(8) %"class.std::basic_ostream"* @_ZSt16__ostream_insertIcSt11char_traitsIcEERSt13basic_ostreamIT_T0_ES6_PKS3_l(%"class.std::basic_ostream"* nonnull align 8 dereferenceable(8) @_ZSt4cout, i8* nonnull %2, i64 1)
  call void @llvm.lifetime.end.p0i8(i64 1, i8* nonnull %2)
  %60 = add nsw i64 %43, -1
  %61 = icmp sgt i64 %43, 1
  br i1 %61, label %42, label %47, !llvm.loop !12

62:                                               ; preds = %47, %62
  %63 = phi i64 [ %66, %62 ], [ 0, %47 ]
  %64 = phi i8 [ %68, %62 ], [ %48, %47 ]
  call void @llvm.lifetime.start.p0i8(i64 1, i8* nonnull %1)
  store i8 %64, i8* %1, align 1, !tbaa !5
  %65 = call nonnull align 8 dereferenceable(8) %"class.std::basic_ostream"* @_ZSt16__ostream_insertIcSt11char_traitsIcEERSt13basic_ostreamIT_T0_ES6_PKS3_l(%"class.std::basic_ostream"* nonnull align 8 dereferenceable(8) @_ZSt4cout, i8* nonnull %1, i64 1)
  call void @llvm.lifetime.end.p0i8(i64 1, i8* nonnull %1)
  %66 = add nuw i64 %63, 1
  %67 = getelementptr inbounds [201 x [100 x i8]], [201 x [100 x i8]]* %4, i64 0, i64 0, i64 %66
  %68 = load i8, i8* %67, align 1, !tbaa !5
  %69 = icmp eq i8 %68, 0
  br i1 %69, label %70, label %62, !llvm.loop !13

70:                                               ; preds = %62, %47
  call void @llvm.lifetime.end.p0i8(i64 100, i8* nonnull %7) #6
  call void @llvm.lifetime.end.p0i8(i64 20100, i8* nonnull %6) #6
  ret i32 0
}

; Function Attrs: argmemonly mustprogress nofree nosync nounwind willreturn
declare void @llvm.lifetime.start.p0i8(i64 immarg, i8* nocapture) #4

declare nonnull align 8 dereferenceable(16) %"class.std::basic_istream"* @_ZNSi7getlineEPclc(%"class.std::basic_istream"* nonnull align 8 dereferenceable(16), i8*, i64, i8 signext) local_unnamed_addr #0

; Function Attrs: argmemonly mustprogress nofree nosync nounwind willreturn
declare void @llvm.lifetime.end.p0i8(i64 immarg, i8* nocapture) #4

declare nonnull align 8 dereferenceable(8) %"class.std::basic_ostream"* @_ZSt16__ostream_insertIcSt11char_traitsIcEERSt13basic_ostreamIT_T0_ES6_PKS3_l(%"class.std::basic_ostream"* nonnull align 8 dereferenceable(8), i8*, i64) local_unnamed_addr #0

; Function Attrs: sspstrong uwtable
define internal void @_GLOBAL__sub_I_530.cpp() #5 section ".text.startup" {
  tail call void @_ZNSt8ios_base4InitC1Ev(%"class.std::ios_base::Init"* nonnull align 1 dereferenceable(1) @_ZStL8__ioinit)
  %1 = tail call i32 @__cxa_atexit(void (i8*)* bitcast (void (%"class.std::ios_base::Init"*)* @_ZNSt8ios_base4InitD1Ev to void (i8*)*), i8* getelementptr inbounds (%"class.std::ios_base::Init", %"class.std::ios_base::Init"* @_ZStL8__ioinit, i64 0, i32 0), i8* nonnull @__dso_handle) #6
  ret void
}


!llvm.module.flags = !{!0, !1, !2, !3}
!llvm.ident = !{!4}

!0 = !{i32 1, !"wchar_size", i32 4}
!1 = !{i32 7, !"PIC Level", i32 2}
!2 = !{i32 7, !"PIE Level", i32 2}
!3 = !{i32 7, !"uwtable", i32 1}
!4 = !{!"clang version 13.0.0"}
!5 = !{!6, !6, i64 0}
!6 = !{!"omnipotent char", !7, i64 0}
!7 = !{!"Simple C++ TBAA"}
!8 = distinct !{!8, !9}
!9 = !{!"llvm.loop.mustprogress"}
!10 = distinct !{!10, !9}
!11 = distinct !{!11, !9}
!12 = distinct !{!12, !9}
!13 = distinct !{!13, !9}
